###############################################################################
#                                                                             #
# IAR C/C++ Compiler V8.11.1.40489/W32 for 8051         22/Jun/2012  15:59:10 #
# Copyright 2004-2012 IAR Systems AB.                                         #
#                                                                             #
#    Core               =  plain                                              #
#    Code model         =  near                                               #
#    Data model         =  large                                              #
#    Calling convention =  xdata reentrant                                    #
#    Constant location  =  data                                               #
#    Dptr setup         =  1,16                                               #
#    Source file        =  D:\PFC\Proyecto\Server\IAR\usb\library\usb_descrip #
#                          tor_parser.c                                       #
#    Command line       =  -f "D:\PFC\Proyecto\Server\IAR\simpliciti\Configur #
#                          ation\Access Point\smpl_config.dat"                #
#                          (-DNUM_CONNECTIONS=1 -DSIZE_INFRAME_Q=6            #
#                          -DSIZE_OUTFRAME_Q=2 "-DTHIS_DEVICE_ADDRESS={0x78,  #
#                          0x56, 0x34, 0x10}" -DACCESS_POINT                  #
#                          -DAP_IS_DATA_HUB -DNUM_STORE_AND_FWD_CLIENTS=3     #
#                          -DSTARTUP_JOINCONTEXT_ON) -f                       #
#                          D:\PFC\Proyecto\Server\IAR\simpliciti\Configuratio #
#                          n\smpl_nwk_config.dat (-DMAX_HOPS=3                #
#                          -DMAX_HOPS_FROM_AP=1 -DMAX_NWK_PAYLOAD=9           #
#                          -DMAX_APP_PAYLOAD=19 -DDEFAULT_LINK_TOKEN=0x010203 #
#                          04 -DDEFAULT_JOIN_TOKEN=0x05060708 -DAPP_AUTO_ACK  #
#                          -DEXTENDED_API -DxSMPL_SECURE -DxNVOBJECT_SUPPORT  #
#                          -DxSW_TIMER) D:\PFC\Proyecto\Server\IAR\usb\librar #
#                          y\usb_descriptor_parser.c -D ISM_US -D             #
#                          MCU_H=<ioCC1111.h> -D chip=1111 -D                 #
#                          RF_FREQUENCY=915000 -D MRFI_CC1111 -D NDEBUG -lC   #
#                          "D:\PFC\Proyecto\Server\IAR\915MHz - Limited IAR   #
#                          Kickstart (USA)\List\" -o                          #
#                          "D:\PFC\Proyecto\Server\IAR\915MHz - Limited IAR   #
#                          Kickstart (USA)\Obj\" -e --no_unroll --no_inline   #
#                          --no_tbaa --debug --core=plain --dptr=16,1         #
#                          --data_model=large --code_model=near               #
#                          --calling_convention=xdata_reentrant               #
#                          --place_constants=data --nr_virtual_regs 8 -I      #
#                          D:\PFC\Proyecto\Server\IAR\bm-br1\ -I              #
#                          D:\PFC\Proyecto\Server\IAR\HAL\include\ -I         #
#                          D:\PFC\Proyecto\Server\IAR\HAL\source\ -I          #
#                          D:\PFC\Proyecto\Server\IAR\wbsl\ -I                #
#                          D:\PFC\Proyecto\Server\IAR\usb\ -I                 #
#                          D:\PFC\Proyecto\Server\IAR\usb\class_cdc\ -I       #
#                          D:\PFC\Proyecto\Server\IAR\usb\library\ -I         #
#                          D:\PFC\Proyecto\Server\IAR\usb\library\ccxx11\ -I  #
#                          D:\PFC\Proyecto\Server\IAR\sync\ -I                #
#                          D:\PFC\Proyecto\Server\IAR\simpliciti\ -I          #
#                          D:\PFC\Proyecto\Server\IAR\simpliciti\Components\b #
#                          sp\ -I D:\PFC\Proyecto\Server\IAR\simpliciti\Compo #
#                          nents\bsp\drivers\ -I D:\PFC\Proyecto\Server\IAR\s #
#                          impliciti\Components\bsp\boards\RFUSB\ -I          #
#                          D:\PFC\Proyecto\Server\IAR\simpliciti\Components\m #
#                          rfi\ -I D:\PFC\Proyecto\Server\IAR\simpliciti\Comp #
#                          onents\nwk\ -I D:\PFC\Proyecto\Server\IAR\simplici #
#                          ti\Components\nwk_applications\ -Om                #
#    List file          =  D:\PFC\Proyecto\Server\IAR\915MHz - Limited IAR    #
#                          Kickstart (USA)\List\usb_descriptor_parser.lst     #
#    Object file        =  D:\PFC\Proyecto\Server\IAR\915MHz - Limited IAR    #
#                          Kickstart (USA)\Obj\usb_descriptor_parser.r51      #
#                                                                             #
#                                                                             #
###############################################################################

D:\PFC\Proyecto\Server\IAR\usb\library\usb_descriptor_parser.c
      1          /***********************************************************************************
      2          
      3              Filename:     usb_descriptor_parser.c
      4          
      5              Description:  Parser for USB descriptor structures.
      6          
      7          ***********************************************************************************/
      8          
      9          /// \addtogroup module_usb_descriptor_parser
     10          /// @{
     11          #define USBDESCRIPTORPARSER_C ///< Modifies the behavior of "EXTERN" in usb_descriptor_parser.h
     12          #include "usb_firmware_library_headers.h"
     13          
     14          //-------------------------------------------------------------------------------------------------------
     15          // USBDP internal module data

   \                                 In  segment XDATA_Z, align 1, keep-with-next
     16          static USBDP_DATA __xdata usbdpData; ///< USBDP internal module data
   \                     usbdpData:
   \   000000                DS 2
   \   000002                REQUIRE __INIT_XDATA_Z
     17          
     18          
     19          /** \brief	Initializes a search
     20          *
     21          * This function must be called before each new search to reset \ref USBDP_DATA.pDesc.
     22          */

   \                                 In  segment NEAR_CODE, align 1, keep-with-next
     23          void usbdpInit(void)
   \                     usbdpInit:
     24          {
   \   000000   C082         PUSH    DPL
   \   000002   C083         PUSH    DPH
   \   000004                ; Saved register size: 2
   \   000004                ; Auto size: 0
     25             usbdpData.pDesc = (const uint8 __code *) usbDescriptorMarker.pUsbDescStart;
   \   000004   90....       MOV     DPTR,#usbDescriptorMarker
   \   000007   E0           MOVX    A,@DPTR
   \   000008   F8           MOV     R0,A
   \   000009   A3           INC     DPTR
   \   00000A   E0           MOVX    A,@DPTR
   \   00000B   F9           MOV     R1,A
   \   00000C   90....       MOV     DPTR,#usbdpData
   \   00000F   E8           MOV     A,R0
   \   000010   F0           MOVX    @DPTR,A
   \   000011   A3           INC     DPTR
   \   000012   E9           MOV     A,R1
   \   000013   F0           MOVX    @DPTR,A
     26          } // usbdpInit
   \   000014   D083         POP     DPH
   \   000016   D082         POP     DPL
   \   000018   22           RET
     27          
     28          
     29          
     30          
     31          /** \brief	Locates the descriptor of the wanted type
     32          *
     33          * This function parses through the USB descriptors until:
     34          * \li It hits one with <tt>bDescriptorType = wantedType</tt>, in which case it returns a pointer to
     35          *     that descriptor, and exits. \ref USBDP_DATA.pDesc will then point to the next descriptor.
     36          * \li It hits one with <tt>bDescriptorType = haltAtType</tt>, in which case it returns a NULL-pointer,
     37          *     and exits. \ref USBDP_DATA.pDesc will then point to that descriptor.
     38          * \li \ref USBDP_DATA.pDesc = \ref usbDescEnd, in which case it returns a NULL-pointer, and exits.
     39          *     \ref USBDP_DATA.pDesc will continue to point to \ref usbDescEnd.
     40          *
     41          * \note To begin a search with this function, \ref usbdpInit should be called first. It should not be
     42          *       called when continuing a search - for instance after a call to \ref usbdpGetConfigurationDesc().
     43          *
     44          * \param[in]       wantedType
     45          *     The wanted descriptor type (e.g. \ref DESC_TYPE_CONFIG)
     46          * \param[in]       haltAtType
     47          *     The parser halts when it reaches this descriptor type, unless \c haltAtType is \c 0 (which in any
     48          *     case is an invalid \c bDescriptorType value).
     49          *
     50          * \return
     51          *     A pointer to the wanted descriptor type, or \c NULL if it was not found.
     52          */

   \                                 In  segment NEAR_CODE, align 1, keep-with-next
     53          void __code* usbdpFindNext(uint8 wantedType, uint8 haltAtType)
   \                     usbdpFindNext:
     54          {
   \   000000   C082         PUSH    DPL
   \   000002   C083         PUSH    DPH
   \   000004                ; Saved register size: 2
   \   000004                ; Auto size: 0
   \   000004   E9           MOV     A,R1
   \   000005   FC           MOV     R4,A
   \   000006   EA           MOV     A,R2
   \   000007   FD           MOV     R5,A
     55             void __code *pResult;
     56             pResult = NULL;
   \   000008   7A00         MOV     R2,#0x0
   \   00000A   7B00         MOV     R3,#0x0
   \   00000C   8021         SJMP    ??usbdpFindNext_0
     57          
     58             // As long as we haven't reached the end...
     59             while (usbdpData.pDesc != (void __code *) usbDescriptorMarker.pUsbDescEnd) {
     60          
     61                // If we have a match on wantedType...
     62                if (usbdpData.pDesc[DESC_TYPE_IDX] == wantedType) {
     63                   pResult = (void __code*) usbdpData.pDesc;
     64                   usbdpData.pDesc += usbdpData.pDesc[DESC_LENGTH_IDX];
     65                   break;
     66          
     67                // If we have a match on haltAtType...
     68                } else if (usbdpData.pDesc[DESC_TYPE_IDX] == haltAtType) {
     69                   if (haltAtType) break;
     70                }
     71          
     72                // Move on to the next descriptor
     73                usbdpData.pDesc += usbdpData.pDesc[DESC_LENGTH_IDX];
   \                     ??usbdpFindNext_1:
   \   00000E   90....       MOV     DPTR,#usbdpData
   \   000011   E0           MOVX    A,@DPTR
   \   000012   F8           MOV     R0,A
   \   000013   A3           INC     DPTR
   \   000014   E0           MOVX    A,@DPTR
   \   000015   F583         MOV     DPH,A
   \   000017   8882         MOV     DPL,R0
   \   000019   E4           CLR     A
   \   00001A   93           MOVC    A,@A+DPTR
   \   00001B   F8           MOV     R0,A
   \   00001C   90....       MOV     DPTR,#usbdpData
   \   00001F   E0           MOVX    A,@DPTR
   \   000020   28           ADD     A,R0
   \   000021   F8           MOV     R0,A
   \   000022   A3           INC     DPTR
   \   000023   E0           MOVX    A,@DPTR
   \   000024   3400         ADDC    A,#0x0
   \   000026   F9           MOV     R1,A
   \   000027   90....       MOV     DPTR,#usbdpData
   \   00002A   E8           MOV     A,R0
   \   00002B   F0           MOVX    @DPTR,A
   \   00002C   A3           INC     DPTR
   \   00002D   E9           MOV     A,R1
   \   00002E   F0           MOVX    @DPTR,A
   \                     ??usbdpFindNext_0:
   \   00002F   90....       MOV     DPTR,#usbdpData
   \   000032   E0           MOVX    A,@DPTR
   \   000033   F8           MOV     R0,A
   \   000034   A3           INC     DPTR
   \   000035   E0           MOVX    A,@DPTR
   \   000036   F9           MOV     R1,A
   \   000037   90....       MOV     DPTR,#usbDescriptorMarker + 2
   \   00003A   E0           MOVX    A,@DPTR
   \   00003B   68           XRL     A,R0
   \   00003C   7003         JNZ     ??usbdpFindNext_2
   \   00003E   A3           INC     DPTR
   \   00003F   E0           MOVX    A,@DPTR
   \   000040   69           XRL     A,R1
   \                     ??usbdpFindNext_2:
   \   000041   6048         JZ      ??usbdpFindNext_3
   \   000043   90....       MOV     DPTR,#usbdpData
   \   000046   E0           MOVX    A,@DPTR
   \   000047   2401         ADD     A,#0x1
   \   000049   F8           MOV     R0,A
   \   00004A   A3           INC     DPTR
   \   00004B   E0           MOVX    A,@DPTR
   \   00004C   3400         ADDC    A,#0x0
   \   00004E   F9           MOV     R1,A
   \   00004F   8882         MOV     DPL,R0
   \   000051   8983         MOV     DPH,R1
   \   000053   E4           CLR     A
   \   000054   93           MOVC    A,@A+DPTR
   \   000055   6C           XRL     A,R4
   \   000056   702B         JNZ     ??usbdpFindNext_4
   \   000058   90....       MOV     DPTR,#usbdpData
   \   00005B   E0           MOVX    A,@DPTR
   \   00005C   FA           MOV     R2,A
   \   00005D   A3           INC     DPTR
   \   00005E   E0           MOVX    A,@DPTR
   \   00005F   FB           MOV     R3,A
   \   000060   90....       MOV     DPTR,#usbdpData
   \   000063   E0           MOVX    A,@DPTR
   \   000064   F8           MOV     R0,A
   \   000065   A3           INC     DPTR
   \   000066   E0           MOVX    A,@DPTR
   \   000067   F583         MOV     DPH,A
   \   000069   8882         MOV     DPL,R0
   \   00006B   E4           CLR     A
   \   00006C   93           MOVC    A,@A+DPTR
   \   00006D   F8           MOV     R0,A
   \   00006E   90....       MOV     DPTR,#usbdpData
   \   000071   E0           MOVX    A,@DPTR
   \   000072   28           ADD     A,R0
   \   000073   F8           MOV     R0,A
   \   000074   A3           INC     DPTR
   \   000075   E0           MOVX    A,@DPTR
   \   000076   3400         ADDC    A,#0x0
   \   000078   F9           MOV     R1,A
   \   000079   90....       MOV     DPTR,#usbdpData
   \   00007C   E8           MOV     A,R0
   \   00007D   F0           MOVX    @DPTR,A
   \   00007E   A3           INC     DPTR
   \   00007F   E9           MOV     A,R1
   \   000080   F0           MOVX    @DPTR,A
   \   000081   8008         SJMP    ??usbdpFindNext_3
   \                     ??usbdpFindNext_4:
   \   000083   E4           CLR     A
   \   000084   93           MOVC    A,@A+DPTR
   \   000085   6D           XRL     A,R5
   \   000086   7086         JNZ     ??usbdpFindNext_1
   \   000088   ED           MOV     A,R5
   \   000089   6083         JZ      ??usbdpFindNext_1
     74             }
     75          
     76             return pResult;
   \                     ??usbdpFindNext_3:
   \   00008B   D083         POP     DPH
   \   00008D   D082         POP     DPL
   \   00008F   22           RET
     77          } // usbdpFindNext
     78          
     79          
     80          
     81          
     82          /** \brief	Locates the (one and only) device descriptor
     83          *
     84          * \note It is not necessary to call \ref usbdpInit() before this function.
     85          *
     86          * \return
     87          *     A pointer to the \ref USB_DEVICE_DESCRIPTOR, or \c NULL if it was not found.
     88          */

   \                                 In  segment NEAR_CODE, align 1, keep-with-next
     89          USB_DEVICE_DESCRIPTOR __code* usbdpGetDeviceDesc(void)
   \                     usbdpGetDeviceDesc:
     90          {
   \   000000                ; Saved register size: 0
   \   000000                ; Auto size: 0
     91             usbdpInit();
   \   000000                ; Setup parameters for call to function usbdpInit
   \   000000   12....       LCALL   usbdpInit
     92             return usbdpFindNext(DESC_TYPE_DEVICE, 0);
   \   000003                ; Setup parameters for call to function usbdpFindNext
   \   000003   7A00         MOV     R2,#0x0
   \   000005   7901         MOV     R1,#0x1
   \   000007   02....       LJMP    usbdpFindNext
     93          } // usbdpGetDeviceDesc
     94          
     95          
     96          
     97          
     98          /** \brief	Locates a configuration descriptor
     99          *
    100          * The search will either look for a descriptor with a specific
    101          * \ref USB_CONFIGURATION_DESCRIPTOR.bConfigurationValue, or simply take the n'th descriptor (by "index")
    102          *
    103          * \note It is not necessary to call \ref usbdpInit() before this function.
    104          *
    105          * \param[in]       cfgValue
    106          *     The configuration value to search for (\ref USB_CONFIGURATION_DESCRIPTOR.bConfigurationValue), or
    107          *     0 to find descriptor by index
    108          * \param[in]       cfgIndex
    109          *     A zero-based index for the configuration descriptor to find.
    110          *     This value is ignored unless \c cfgValue is 0.
    111          *
    112          * \return
    113          *     A pointer to the \ref USB_DEVICE_DESCRIPTOR, or \c NULL if it was not found.
    114          */

   \                                 In  segment NEAR_CODE, align 1, keep-with-next
    115          USB_CONFIGURATION_DESCRIPTOR __code* usbdpGetConfigurationDesc(uint8 cfgValue, uint8 cfgIndex)
   \                     usbdpGetConfigurationDesc:
    116          {
   \   000000   74F7         MOV     A,#-0x9
   \   000002   12....       LCALL   ?FUNC_ENTER_XDATA
   \   000005                ; Saved register size: 9
   \   000005                ; Auto size: 0
   \   000005   E9           MOV     A,R1
   \   000006   FE           MOV     R6,A
   \   000007   EA           MOV     A,R2
   \   000008   FF           MOV     R7,A
    117             USB_CONFIGURATION_DESCRIPTOR __code *pConfigurationDesc;
    118             usbdpInit();
   \   000009                ; Setup parameters for call to function usbdpInit
   \   000009   12....       LCALL   usbdpInit
    119          
    120             // As long as there are more configuration descriptors...
    121             while (pConfigurationDesc = usbdpFindNext(DESC_TYPE_CONFIG, 0)) {
   \                     ??usbdpGetConfigurationDesc_0:
   \   00000C                ; Setup parameters for call to function usbdpFindNext
   \   00000C   7A00         MOV     R2,#0x0
   \   00000E   7902         MOV     R1,#0x2
   \   000010   12....       LCALL   usbdpFindNext
   \   000013   EA           MOV     A,R2
   \   000014   4B           ORL     A,R3
   \   000015   601C         JZ      ??usbdpGetConfigurationDesc_1
    122          
    123                // Search by value?
    124                if (cfgValue) {
   \   000017   EE           MOV     A,R6
   \   000018   6010         JZ      ??usbdpGetConfigurationDesc_2
    125                   if (cfgValue == pConfigurationDesc->bConfigurationValue) break;
   \   00001A   8A82         MOV     DPL,R2
   \   00001C   8B83         MOV     DPH,R3
   \   00001E   A3           INC     DPTR
   \   00001F   A3           INC     DPTR
   \   000020   A3           INC     DPTR
   \   000021   A3           INC     DPTR
   \   000022   A3           INC     DPTR
   \   000023   E4           CLR     A
   \   000024   93           MOVC    A,@A+DPTR
   \   000025   6E           XRL     A,R6
   \   000026   70E4         JNZ     ??usbdpGetConfigurationDesc_0
   \   000028   8009         SJMP    ??usbdpGetConfigurationDesc_1
    126          
    127                // Search by index? (search cfgIndex+1 times)
    128                } else if (!cfgIndex--) {
   \                     ??usbdpGetConfigurationDesc_2:
   \   00002A   EF           MOV     A,R7
   \   00002B   F8           MOV     R0,A
   \   00002C   74FF         MOV     A,#-0x1
   \   00002E   28           ADD     A,R0
   \   00002F   1F           DEC     R7
   \   000030   04           INC     A
   \   000031   70D9         JNZ     ??usbdpGetConfigurationDesc_0
    129                   break;
    130                }
    131             }
    132          
    133             return pConfigurationDesc;
   \                     ??usbdpGetConfigurationDesc_1:
   \   000033   7F02         MOV     R7,#0x2
   \   000035   02....       LJMP    ?FUNC_LEAVE_XDATA
    134          } // usbdpGetConfigurationDesc
    135          
    136          
    137          
    138          
    139          /** \brief	Locates an interface descriptor
    140          *
    141          * The function will first go to the configuration descriptor that matches the supplied configuration
    142          * value, and then locate the interface descriptor that matches the given interface number and alternate
    143          * setting.
    144          *
    145          * \note It is not necessary to call \ref usbdpInit() before this function.
    146          *
    147          * \param[in]       cfgValue
    148          *     The configuration value (\ref USB_CONFIGURATION_DESCRIPTOR.bConfigurationValue)
    149          * \param[in]       intNumber
    150          *     The interface number (\ref USB_INTERFACE_DESCRIPTOR.bInterfaceNumber)
    151          * \param[in]       altSetting
    152          *     The alternate setting (\ref USB_INTERFACE_DESCRIPTOR.bAlternateSetting)
    153          *
    154          * \return
    155          *     A pointer to the \ref USB_INTERFACE_DESCRIPTOR, or \c NULL if it was not found.
    156          */

   \                                 In  segment NEAR_CODE, align 1, keep-with-next
    157          USB_INTERFACE_DESCRIPTOR __code* usbdpGetInterfaceDesc(uint8 cfgValue, uint8 intNumber, uint8 altSetting)
   \                     usbdpGetInterfaceDesc:
    158          {
   \   000000   74F5         MOV     A,#-0xb
   \   000002   12....       LCALL   ?FUNC_ENTER_XDATA
   \   000005                ; Saved register size: 11
   \   000005                ; Auto size: 0
   \   000005   EA           MOV     A,R2
   \   000006   FF           MOV     R7,A
   \   000007   8B..         MOV     ?V0 + 0,R3
    159             USB_INTERFACE_DESCRIPTOR __code *pInterfaceDesc;
    160          
    161             // First get to the correct configuration
    162             usbdpGetConfigurationDesc(cfgValue, 0);
   \   000009                ; Setup parameters for call to function usbdpGetConfigurationDesc
   \   000009   7A00         MOV     R2,#0x0
   \   00000B   12....       LCALL   usbdpGetConfigurationDesc
    163          
    164             // Then find a match on the interface
    165             while (pInterfaceDesc = usbdpFindNext(DESC_TYPE_INTERFACE, DESC_TYPE_CONFIG)) {
   \                     ??usbdpGetInterfaceDesc_0:
   \   00000E                ; Setup parameters for call to function usbdpFindNext
   \   00000E   7A02         MOV     R2,#0x2
   \   000010   7904         MOV     R1,#0x4
   \   000012   12....       LCALL   usbdpFindNext
   \   000015   EA           MOV     A,R2
   \   000016   4B           ORL     A,R3
   \   000017   6018         JZ      ??usbdpGetInterfaceDesc_1
    166                if ((pInterfaceDesc->bInterfaceNumber == intNumber) && (pInterfaceDesc->bAlternateSetting == altSetting)) {
   \   000019   8A82         MOV     DPL,R2
   \   00001B   8B83         MOV     DPH,R3
   \   00001D   A3           INC     DPTR
   \   00001E   A3           INC     DPTR
   \   00001F   E4           CLR     A
   \   000020   93           MOVC    A,@A+DPTR
   \   000021   6F           XRL     A,R7
   \   000022   70EA         JNZ     ??usbdpGetInterfaceDesc_0
   \   000024   8A82         MOV     DPL,R2
   \   000026   8B83         MOV     DPH,R3
   \   000028   A3           INC     DPTR
   \   000029   A3           INC     DPTR
   \   00002A   A3           INC     DPTR
   \   00002B   E4           CLR     A
   \   00002C   93           MOVC    A,@A+DPTR
   \   00002D   65..         XRL     A,?V0 + 0
   \   00002F   70DD         JNZ     ??usbdpGetInterfaceDesc_0
    167                   break;
    168                }
    169             }
    170          
    171             return pInterfaceDesc;
   \                     ??usbdpGetInterfaceDesc_1:
   \   000031   7F04         MOV     R7,#0x4
   \   000033   02....       LJMP    ?FUNC_LEAVE_XDATA
    172          } // usbdpGetInterfaceDesc
    173          
    174          
    175          
    176          
    177          /** \brief	Locates a string descriptor
    178          *
    179          * \note It is not necessary to call \ref usbdpInit() before this function.
    180          *
    181          * \param[in]       strIndex
    182          *     A zero-based index that matches the "iXxxxxxxxxx" string indexes in the other descriptors
    183          *
    184          * \return
    185          *     A pointer to the \ref USB_INTERFACE_DESCRIPTOR, or \c NULL if it was not found.
    186          */

   \                                 In  segment NEAR_CODE, align 1, keep-with-next
    187          USB_STRING_DESCRIPTOR __code* usbdpGetStringDesc(uint8 strIndex)
   \                     usbdpGetStringDesc:
    188          {
   \   000000   74F7         MOV     A,#-0x9
   \   000002   12....       LCALL   ?FUNC_ENTER_XDATA
   \   000005                ; Saved register size: 9
   \   000005                ; Auto size: 0
   \   000005   E9           MOV     A,R1
   \   000006   FE           MOV     R6,A
    189             USB_STRING_DESCRIPTOR __code *pStringDesc;
    190             usbdpInit();
   \   000007                ; Setup parameters for call to function usbdpInit
   \   000007   12....       LCALL   usbdpInit
    191          
    192          #ifdef MS_EXT_C_ID
    193              if (strIndex == 0xEE){
    194                  // Find the Microsoft OS String Descriptor
    195                  do{
    196                      pStringDesc = usbdpFindNext(DESC_TYPE_STRING, 0);
    197                  }while (pStringDesc != NULL && pStringDesc->bLength != 18);
    198              } else
    199          #endif
    200              {
    201                  // Search strIndex+1 times
    202                  do {
    203                      pStringDesc = usbdpFindNext(DESC_TYPE_STRING, 0);
   \                     ??usbdpGetStringDesc_0:
   \   00000A                ; Setup parameters for call to function usbdpFindNext
   \   00000A   7A00         MOV     R2,#0x0
   \   00000C   7903         MOV     R1,#0x3
   \   00000E   12....       LCALL   usbdpFindNext
    204                  } while (strIndex--);
   \   000011   EE           MOV     A,R6
   \   000012   F8           MOV     R0,A
   \   000013   74FF         MOV     A,#-0x1
   \   000015   28           ADD     A,R0
   \   000016   1E           DEC     R6
   \   000017   04           INC     A
   \   000018   70F0         JNZ     ??usbdpGetStringDesc_0
    205              }
    206             return pStringDesc;
   \   00001A   7F02         MOV     R7,#0x2
   \   00001C   02....       LJMP    ?FUNC_LEAVE_XDATA
    207          } // usbdpGetStringDesc
    208          /// @}
    209          /*
    210          +------------------------------------------------------------------------------
    211          |  Copyright 2004-2007 Texas Instruments Incorporated. All rights reserved.
    212          |
    213          |  IMPORTANT: Your use of this Software is limited to those specific rights
    214          |  granted under the terms of a software license agreement between the user who
    215          |  downloaded the software, his/her employer (which must be your employer) and
    216          |  Texas Instruments Incorporated (the "License"). You may not use this Software
    217          |  unless you agree to abide by the terms of the License. The License limits
    218          |  your use, and you acknowledge, that the Software may not be modified, copied
    219          |  or distributed unless embedded on a Texas Instruments microcontroller or used
    220          |  solely and exclusively in conjunction with a Texas Instruments radio
    221          |  frequency transceiver, which is integrated into your product. Other than for
    222          |  the foregoing purpose, you may not use, reproduce, copy, prepare derivative
    223          |  works of, modify, distribute, perform, display or sell this Software and/or
    224          |  its documentation for any purpose.
    225          |
    226          |  YOU FURTHER ACKNOWLEDGE AND AGREE THAT THE SOFTWARE AND DOCUMENTATION ARE
    227          |  PROVIDED “AS IS” WITHOUT WARRANTY OF ANY KIND, EITHER EXPRESS OR IMPLIED,
    228          |  INCLUDING WITHOUT LIMITATION, ANY WARRANTY OF MERCHANTABILITY, TITLE,
    229          |  NON-INFRINGEMENT AND FITNESS FOR A PARTICULAR PURPOSE. IN NO EVENT SHALL
    230          |  TEXAS INSTRUMENTS OR ITS LICENSORS BE LIABLE OR OBLIGATED UNDER CONTRACT,
    231          |  NEGLIGENCE, STRICT LIABILITY, CONTRIBUTION, BREACH OF WARRANTY, OR OTHER
    232          |  LEGAL EQUITABLE THEORY ANY DIRECT OR INDIRECT DAMAGES OR EXPENSES INCLUDING
    233          |  BUT NOT LIMITED TO ANY INCIDENTAL, SPECIAL, INDIRECT, PUNITIVE OR
    234          |  CONSEQUENTIAL DAMAGES, LOST PROFITS OR LOST DATA, COST OF PROCUREMENT OF
    235          |  SUBSTITUTE GOODS, TECHNOLOGY, SERVICES, OR ANY CLAIMS BY THIRD PARTIES
    236          |  (INCLUDING BUT NOT LIMITED TO ANY DEFENSE THEREOF), OR OTHER SIMILAR COSTS.
    237          |
    238          |  Should you have any questions regarding your right to use this Software,
    239          |  contact Texas Instruments Incorporated at www.TI.com.
    240          |
    241          +------------------------------------------------------------------------------
    242          */

   Maximum stack usage in bytes:

     Function                       ISTACK PSTACK XSTACK
     --------                       ------ ------ ------
     usbdpFindNext                      2      0     11
     usbdpGetConfigurationDesc          0      0     20
       -> usbdpInit                     0      0     18
       -> usbdpFindNext                 0      0     18
     usbdpGetDeviceDesc                 0      0      0
       -> usbdpInit                     0      0      0
       -> usbdpFindNext                 0      0      0
     usbdpGetInterfaceDesc              0      0     11
       -> usbdpGetConfigurationDesc     0      0     22
       -> usbdpFindNext                 0      0     22
     usbdpGetStringDesc                 0      0      9
       -> usbdpInit                     0      0     18
       -> usbdpFindNext                 0      0     18
     usbdpInit                          2      0      9


   Segment part sizes:

     Function/Label            Bytes
     --------------            -----
     usbdpData                    2
     usbdpInit                   25
     usbdpFindNext              144
     usbdpGetDeviceDesc          10
     usbdpGetConfigurationDesc   56
     usbdpGetInterfaceDesc       54
     usbdpGetStringDesc          31

 
 320 bytes in segment NEAR_CODE
   2 bytes in segment XDATA_Z
 
 320 bytes of CODE  memory
   2 bytes of XDATA memory

Errors: none
Warnings: none
